target datalayout = "e-m:e-p270:32:32-p271:32:32-p272:64:64-i64:64-i128:128-f80:128-n8:16:32:64-S128"
target triple = "x86_64-pc-linux-gnu"

%struct.WebPIDecoder = type { i32, %struct.WebPDecParams, i32, ptr, %struct.VP8Io, %struct.MemBuffer, %struct.WebPDecBuffer, ptr, i64, i32 }
%struct.WebPDecParams = type { ptr, ptr, ptr, ptr, i32, ptr, ptr, ptr, ptr, ptr, ptr, ptr, ptr, ptr }
%struct.VP8Io = type { i32, i32, i32, i32, i32, ptr, ptr, ptr, i32, i32, ptr, ptr, ptr, ptr, i32, i64, ptr, i32, i32, i32, i32, i32, i32, i32, i32, i32, ptr }
%struct.MemBuffer = type { i32, i64, i64, i64, ptr, i64, ptr }
%struct.WebPDecBuffer = type { i32, i32, i32, i32, %union.anon, [4 x i32], ptr }
%union.anon = type { %struct.WebPYUVABuffer }
%struct.WebPYUVABuffer = type { ptr, ptr, ptr, ptr, i32, i32, i32, i32, i64, i64, i64, i64 }

; Function Attrs: nounwind uwtable
define internal ptr @GetOutputBuffer(ptr noundef %0) #0 {
  %2 = alloca ptr, align 8
  %3 = alloca ptr, align 8
  store ptr %0, ptr %3, align 8, !tbaa !10
  %4 = load ptr, ptr %3, align 8, !tbaa !10
  %5 = icmp eq ptr %4, null
  br i1 %5, label %11, label %6

6:                                                ; preds = %1
  %7 = load ptr, ptr %3, align 8, !tbaa !10
  %8 = getelementptr inbounds nuw %struct.WebPIDecoder, ptr %7, i32 0, i32 3
  %9 = load ptr, ptr %8, align 8, !tbaa !33
  %10 = icmp eq ptr %9, null
  br i1 %10, label %11, label %12

11:                                               ; preds = %6, %1
  store ptr null, ptr %2, align 8
  br label %29

12:                                               ; preds = %6
  %13 = load ptr, ptr %3, align 8, !tbaa !10
  %14 = getelementptr inbounds nuw %struct.WebPIDecoder, ptr %13, i32 0, i32 0
  %15 = load i32, ptr %14, align 8, !tbaa !12
  %16 = icmp ule i32 %15, 2
  br i1 %16, label %17, label %18

17:                                               ; preds = %12
  store ptr null, ptr %2, align 8
  br label %29

18:                                               ; preds = %12
  %19 = load ptr, ptr %3, align 8, !tbaa !10
  %20 = getelementptr inbounds nuw %struct.WebPIDecoder, ptr %19, i32 0, i32 7
  %21 = load ptr, ptr %20, align 8, !tbaa !26
  %22 = icmp ne ptr %21, null
  br i1 %22, label %23, label %24

23:                                               ; preds = %18
  store ptr null, ptr %2, align 8
  br label %29

24:                                               ; preds = %18
  %25 = load ptr, ptr %3, align 8, !tbaa !10
  %26 = getelementptr inbounds nuw %struct.WebPIDecoder, ptr %25, i32 0, i32 1
  %27 = getelementptr inbounds nuw %struct.WebPDecParams, ptr %26, i32 0, i32 0
  %28 = load ptr, ptr %27, align 8, !tbaa !25
  store ptr %28, ptr %2, align 8
  br label %29

29:                                               ; preds = %24, %23, %17, %11
  %30 = load ptr, ptr %2, align 8
  ret ptr %30
}

; Function Attrs: nounwind uwtable
define ptr @WebPIDecGetYUVA(ptr noundef %0, ptr noundef %1, ptr noundef %2, ptr noundef %3, ptr noundef %4, ptr noundef %5, ptr noundef %6, ptr noundef %7, ptr noundef %8, ptr noundef %9) #0 {
  %11 = alloca ptr, align 8
  %12 = alloca ptr, align 8
  %13 = alloca ptr, align 8
  %14 = alloca ptr, align 8
  %15 = alloca ptr, align 8
  %16 = alloca ptr, align 8
  %17 = alloca ptr, align 8
  %18 = alloca ptr, align 8
  %19 = alloca ptr, align 8
  %20 = alloca ptr, align 8
  %21 = alloca ptr, align 8
  %22 = alloca ptr, align 8
  %23 = alloca i32, align 4
  store ptr %0, ptr %12, align 8, !tbaa !10
  store ptr %1, ptr %13, align 8, !tbaa !61
  store ptr %2, ptr %14, align 8, !tbaa !66
  store ptr %3, ptr %15, align 8, !tbaa !66
  store ptr %4, ptr %16, align 8, !tbaa !66
  store ptr %5, ptr %17, align 8, !tbaa !61
  store ptr %6, ptr %18, align 8, !tbaa !61
  store ptr %7, ptr %19, align 8, !tbaa !61
  store ptr %8, ptr %20, align 8, !tbaa !61
  store ptr %9, ptr %21, align 8, !tbaa !61
  call void @llvm.lifetime.start.p0(i64 8, ptr %22) #6
  %24 = load ptr, ptr %12, align 8, !tbaa !10
  %25 = call ptr @GetOutputBuffer(ptr noundef %24)
  store ptr %25, ptr %22, align 8, !tbaa !3
  %26 = load ptr, ptr %22, align 8, !tbaa !3
  %27 = icmp eq ptr %26, null
  br i1 %27, label %28, label %29

28:                                               ; preds = %10
  store ptr null, ptr %11, align 8
  store i32 1, ptr %23, align 4
  br label %119

29:                                               ; preds = %10
  %30 = load ptr, ptr %22, align 8, !tbaa !3
  %31 = getelementptr inbounds nuw %struct.WebPDecBuffer, ptr %30, i32 0, i32 0
  %32 = load i32, ptr %31, align 8, !tbaa !27
  %33 = icmp ult i32 %32, 11
  br i1 %33, label %34, label %35

34:                                               ; preds = %29
  store ptr null, ptr %11, align 8
  store i32 1, ptr %23, align 4
  br label %119

35:                                               ; preds = %29
  %36 = load ptr, ptr %13, align 8, !tbaa !61
  %37 = icmp ne ptr %36, null
  br i1 %37, label %38, label %44

38:                                               ; preds = %35
  %39 = load ptr, ptr %12, align 8, !tbaa !10
  %40 = getelementptr inbounds nuw %struct.WebPIDecoder, ptr %39, i32 0, i32 1
  %41 = getelementptr inbounds nuw %struct.WebPDecParams, ptr %40, i32 0, i32 4
  %42 = load i32, ptr %41, align 8, !tbaa !64
  %43 = load ptr, ptr %13, align 8, !tbaa !61
  store i32 %42, ptr %43, align 4, !tbaa !39
  br label %44

44:                                               ; preds = %38, %35
  %45 = load ptr, ptr %14, align 8, !tbaa !66
  %46 = icmp ne ptr %45, null
  br i1 %46, label %47, label %53

47:                                               ; preds = %44
  %48 = load ptr, ptr %22, align 8, !tbaa !3
  %49 = getelementptr inbounds nuw %struct.WebPDecBuffer, ptr %48, i32 0, i32 4
  %50 = getelementptr inbounds nuw %struct.WebPYUVABuffer, ptr %49, i32 0, i32 1
  %51 = load ptr, ptr %50, align 8, !tbaa !42
  %52 = load ptr, ptr %14, align 8, !tbaa !66
  store ptr %51, ptr %52, align 8, !tbaa !28
  br label %53

53:                                               ; preds = %47, %44
  %54 = load ptr, ptr %15, align 8, !tbaa !66
  %55 = icmp ne ptr %54, null
  br i1 %55, label %56, label %62

56:                                               ; preds = %53
  %57 = load ptr, ptr %22, align 8, !tbaa !3
  %58 = getelementptr inbounds nuw %struct.WebPDecBuffer, ptr %57, i32 0, i32 4
  %59 = getelementptr inbounds nuw %struct.WebPYUVABuffer, ptr %58, i32 0, i32 2
  %60 = load ptr, ptr %59, align 8, !tbaa !42
  %61 = load ptr, ptr %15, align 8, !tbaa !66
  store ptr %60, ptr %61, align 8, !tbaa !28
  br label %62

62:                                               ; preds = %56, %53
  %63 = load ptr, ptr %16, align 8, !tbaa !66
  %64 = icmp ne ptr %63, null
  br i1 %64, label %65, label %71

65:                                               ; preds = %62
  %66 = load ptr, ptr %22, align 8, !tbaa !3
  %67 = getelementptr inbounds nuw %struct.WebPDecBuffer, ptr %66, i32 0, i32 4
  %68 = getelementptr inbounds nuw %struct.WebPYUVABuffer, ptr %67, i32 0, i32 3
  %69 = load ptr, ptr %68, align 8, !tbaa !42
  %70 = load ptr, ptr %16, align 8, !tbaa !66
  store ptr %69, ptr %70, align 8, !tbaa !28
  br label %71

71:                                               ; preds = %65, %62
  %72 = load ptr, ptr %17, align 8, !tbaa !61
  %73 = icmp ne ptr %72, null
  br i1 %73, label %74, label %79

74:                                               ; preds = %71
  %75 = load ptr, ptr %22, align 8, !tbaa !3
  %76 = getelementptr inbounds nuw %struct.WebPDecBuffer, ptr %75, i32 0, i32 1
  %77 = load i32, ptr %76, align 4, !tbaa !63
  %78 = load ptr, ptr %17, align 8, !tbaa !61
  store i32 %77, ptr %78, align 4, !tbaa !39
  br label %79

79:                                               ; preds = %74, %71
  %80 = load ptr, ptr %18, align 8, !tbaa !61
  %81 = icmp ne ptr %80, null
  br i1 %81, label %82, label %87

82:                                               ; preds = %79
  %83 = load ptr, ptr %22, align 8, !tbaa !3
  %84 = getelementptr inbounds nuw %struct.WebPDecBuffer, ptr %83, i32 0, i32 2
  %85 = load i32, ptr %84, align 8, !tbaa !65
  %86 = load ptr, ptr %18, align 8, !tbaa !61
  store i32 %85, ptr %86, align 4, !tbaa !39
  br label %87

87:                                               ; preds = %82, %79
  %88 = load ptr, ptr %19, align 8, !tbaa !61
  %89 = icmp ne ptr %88, null
  br i1 %89, label %90, label %96

90:                                               ; preds = %87
  %91 = load ptr, ptr %22, align 8, !tbaa !3
  %92 = getelementptr inbounds nuw %struct.WebPDecBuffer, ptr %91, i32 0, i32 4
  %93 = getelementptr inbounds nuw %struct.WebPYUVABuffer, ptr %92, i32 0, i32 4
  %94 = load i32, ptr %93, align 8, !tbaa !42
  %95 = load ptr, ptr %19, align 8, !tbaa !61
  store i32 %94, ptr %95, align 4, !tbaa !39
  br label %96

96:                                               ; preds = %90, %87
  %97 = load ptr, ptr %20, align 8, !tbaa !61
  %98 = icmp ne ptr %97, null
  br i1 %98, label %99, label %105

99:                                               ; preds = %96
  %100 = load ptr, ptr %22, align 8, !tbaa !3
  %101 = getelementptr inbounds nuw %struct.WebPDecBuffer, ptr %100, i32 0, i32 4
  %102 = getelementptr inbounds nuw %struct.WebPYUVABuffer, ptr %101, i32 0, i32 5
  %103 = load i32, ptr %102, align 4, !tbaa !42
  %104 = load ptr, ptr %20, align 8, !tbaa !61
  store i32 %103, ptr %104, align 4, !tbaa !39
  br label %105

105:                                              ; preds = %99, %96
  %106 = load ptr, ptr %21, align 8, !tbaa !61
  %107 = icmp ne ptr %106, null
  br i1 %107, label %108, label %114

108:                                              ; preds = %105
  %109 = load ptr, ptr %22, align 8, !tbaa !3
  %110 = getelementptr inbounds nuw %struct.WebPDecBuffer, ptr %109, i32 0, i32 4
  %111 = getelementptr inbounds nuw %struct.WebPYUVABuffer, ptr %110, i32 0, i32 7
  %112 = load i32, ptr %111, align 4, !tbaa !42
  %113 = load ptr, ptr %21, align 8, !tbaa !61
  store i32 %112, ptr %113, align 4, !tbaa !39
  br label %114

114:                                              ; preds = %108, %105
  %115 = load ptr, ptr %22, align 8, !tbaa !3
  %116 = getelementptr inbounds nuw %struct.WebPDecBuffer, ptr %115, i32 0, i32 4
  %117 = getelementptr inbounds nuw %struct.WebPYUVABuffer, ptr %116, i32 0, i32 0
  %118 = load ptr, ptr %117, align 8, !tbaa !42
  store ptr %118, ptr %11, align 8
  store i32 1, ptr %23, align 4
  br label %119

119:                                              ; preds = %114, %34, %28
  call void @llvm.lifetime.end.p0(i64 8, ptr %22) #6
  %120 = load ptr, ptr %11, align 8
  ret ptr %120
}