; Function Attrs: mustprogress nofree norecurse nosync nounwind willreturn memory(read, argmem: readwrite, inaccessiblemem: none) uwtable
define ptr @WebPIDecGetYUVA(ptr noundef readonly captures(address_is_null) %0, ptr noundef writeonly captures(address_is_null) %1, ptr noundef writeonly captures(address_is_null) %2, ptr noundef writeonly captures(address_is_null) %3, ptr noundef writeonly captures(address_is_null) %4, ptr noundef writeonly captures(address_is_null) %5, ptr noundef writeonly captures(address_is_null) %6, ptr noundef writeonly captures(address_is_null) %7, ptr noundef writeonly captures(address_is_null) %8, ptr noundef writeonly captures(address_is_null) %9) local_unnamed_addr #4 {
  %11 = icmp eq ptr %0, null
  br i1 %11, label %GetOutputBuffer.exit.thread, label %12

12:                                               ; preds = %10
  %13 = getelementptr inbounds nuw i8, ptr %0, i64 128
  %14 = load ptr, ptr %13, align 8, !tbaa !25
  %15 = icmp eq ptr %14, null
  br i1 %15, label %GetOutputBuffer.exit.thread, label %16

16:                                               ; preds = %12
  %17 = load i32, ptr %0, align 8, !tbaa !3
  %18 = icmp ult i32 %17, 3
  br i1 %18, label %GetOutputBuffer.exit.thread, label %19

19:                                               ; preds = %16
  %20 = getelementptr inbounds nuw i8, ptr %0, i64 472
  %21 = load ptr, ptr %20, align 8, !tbaa !22
  %.not.i = icmp eq ptr %21, null
  br i1 %.not.i, label %GetOutputBuffer.exit, label %GetOutputBuffer.exit.thread

GetOutputBuffer.exit:                             ; preds = %19
  %22 = getelementptr inbounds nuw i8, ptr %0, i64 8
  %23 = load ptr, ptr %22, align 8, !tbaa !21
  %24 = icmp eq ptr %23, null
  br i1 %24, label %GetOutputBuffer.exit.thread, label %25

25:                                               ; preds = %GetOutputBuffer.exit
  %26 = load i32, ptr %23, align 8, !tbaa !23
  %27 = icmp ult i32 %26, 11
  br i1 %27, label %GetOutputBuffer.exit.thread, label %28

28:                                               ; preds = %25
  %.not = icmp eq ptr %1, null
  br i1 %.not, label %32, label %29

29:                                               ; preds = %28
  %30 = getelementptr inbounds nuw i8, ptr %0, i64 40
  %31 = load i32, ptr %30, align 8, !tbaa !105
  store i32 %31, ptr %1, align 4, !tbaa !82
  br label %32

32:                                               ; preds = %29, %28
  %.not42 = icmp eq ptr %2, null
  br i1 %.not42, label %36, label %33

33:                                               ; preds = %32
  %34 = getelementptr inbounds nuw i8, ptr %23, i64 24
  %35 = load ptr, ptr %34, align 8, !tbaa !31
  store ptr %35, ptr %2, align 8, !tbaa !83
  br label %36

36:                                               ; preds = %33, %32
  %.not43 = icmp eq ptr %3, null
  br i1 %.not43, label %40, label %37

37:                                               ; preds = %36
  %38 = getelementptr inbounds nuw i8, ptr %23, i64 32
  %39 = load ptr, ptr %38, align 8, !tbaa !31
  store ptr %39, ptr %3, align 8, !tbaa !83
  br label %40

40:                                               ; preds = %37, %36
  %.not44 = icmp eq ptr %4, null
  br i1 %.not44, label %44, label %41

41:                                               ; preds = %40
  %42 = getelementptr inbounds nuw i8, ptr %23, i64 40
  %43 = load ptr, ptr %42, align 8, !tbaa !31
  store ptr %43, ptr %4, align 8, !tbaa !83
  br label %44

44:                                               ; preds = %41, %40
  %.not45 = icmp eq ptr %5, null
  br i1 %.not45, label %48, label %45

45:                                               ; preds = %44
  %46 = getelementptr inbounds nuw i8, ptr %23, i64 4
  %47 = load i32, ptr %46, align 4, !tbaa !104
  store i32 %47, ptr %5, align 4, !tbaa !82
  br label %48

48:                                               ; preds = %45, %44
  %.not46 = icmp eq ptr %6, null
  br i1 %.not46, label %52, label %49

49:                                               ; preds = %48
  %50 = getelementptr inbounds nuw i8, ptr %23, i64 8
  %51 = load i32, ptr %50, align 8, !tbaa !106
  store i32 %51, ptr %6, align 4, !tbaa !82
  br label %52

52:                                               ; preds = %49, %48
  %.not47 = icmp eq ptr %7, null
  br i1 %.not47, label %56, label %53

53:                                               ; preds = %52
  %54 = getelementptr inbounds nuw i8, ptr %23, i64 48
  %55 = load i32, ptr %54, align 8, !tbaa !31
  store i32 %55, ptr %7, align 4, !tbaa !82
  br label %56

56:                                               ; preds = %53, %52
  %.not48 = icmp eq ptr %8, null
  br i1 %.not48, label %60, label %57

57:                                               ; preds = %56
  %58 = getelementptr inbounds nuw i8, ptr %23, i64 52
  %59 = load i32, ptr %58, align 4, !tbaa !31
  store i32 %59, ptr %8, align 4, !tbaa !82
  br label %60

60:                                               ; preds = %57, %56
  %.not49 = icmp eq ptr %9, null
  br i1 %.not49, label %64, label %61

61:                                               ; preds = %60
  %62 = getelementptr inbounds nuw i8, ptr %23, i64 60
  %63 = load i32, ptr %62, align 4, !tbaa !31
  store i32 %63, ptr %9, align 4, !tbaa !82
  br label %64

64:                                               ; preds = %61, %60
  %65 = getelementptr inbounds nuw i8, ptr %23, i64 16
  %66 = load ptr, ptr %65, align 8, !tbaa !31
  br label %GetOutputBuffer.exit.thread

GetOutputBuffer.exit.thread:                      ; preds = %19, %16, %10, %12, %25, %GetOutputBuffer.exit, %64
  %.0 = phi ptr [ %66, %64 ], [ null, %GetOutputBuffer.exit ], [ null, %25 ], [ null, %12 ], [ null, %10 ], [ null, %16 ], [ null, %19 ]
  ret ptr %.0
}